target datalayout = "e-m:e-p270:32:32-p271:32:32-p272:64:64-i64:64-i128:128-f80:128-n8:16:32:64-S128"
target triple = "x86_64-pc-linux-gnu"

%"class.nanogui::Color" = type { %"struct.nanogui::Array.5" }
%"struct.nanogui::Array.5" = type { [4 x float] }
%"class.std::__cxx11::basic_string" = type { %"struct.std::__cxx11::basic_string<char>::_Alloc_hider", i64, %union.anon }
%"struct.std::__cxx11::basic_string<char>::_Alloc_hider" = type { ptr }
%union.anon = type { i64, [8 x i8] }
%"class.nanogui::ImageView" = type { %"class.nanogui::Canvas.base", %"class.nanogui::ref.6", %"class.nanogui::ref.7", float, %"struct.nanogui::Array.8", i8, %"class.nanogui::Color", %"class.nanogui::Color", %"class.std::function" }
%"class.nanogui::Canvas.base" = type <{ %"class.nanogui::Widget.base", [4 x i8], %"class.nanogui::ref.4", i8, [3 x i8], %"class.nanogui::Color", i8 }>
%"class.nanogui::Widget.base" = type <{ %"class.nanogui::Object.base", [4 x i8], ptr, %"class.nanogui::ref", %"class.nanogui::ref.0", %"struct.nanogui::Array", %"struct.nanogui::Array", %"struct.nanogui::Array", %"class.std::vector", i8, i8, i8, i8, [4 x i8], %"class.std::__cxx11::basic_string", i32, float, i32 }>
%"class.nanogui::Object.base" = type <{ ptr, %"struct.std::atomic" }>
%"struct.std::atomic" = type { %"struct.std::__atomic_base" }
%"struct.std::__atomic_base" = type { i32 }
%"class.nanogui::ref" = type { ptr }
%"class.nanogui::ref.0" = type { ptr }
%"struct.nanogui::Array" = type { [2 x i32] }
%"class.std::vector" = type { %"struct.std::_Vector_base" }
%"struct.std::_Vector_base" = type { %"struct.std::_Vector_base<nanogui::Widget *, std::allocator<nanogui::Widget *>>::_Vector_impl" }
%"struct.std::_Vector_base<nanogui::Widget *, std::allocator<nanogui::Widget *>>::_Vector_impl" = type { %"struct.std::_Vector_base<nanogui::Widget *, std::allocator<nanogui::Widget *>>::_Vector_impl_data" }
%"struct.std::_Vector_base<nanogui::Widget *, std::allocator<nanogui::Widget *>>::_Vector_impl_data" = type { ptr, ptr, ptr }
%"class.nanogui::ref.4" = type { ptr }
%"class.nanogui::ref.6" = type { ptr }
%"class.nanogui::ref.7" = type { ptr }
%"struct.nanogui::Array.8" = type { [2 x float] }
%"class.std::function" = type { %"class.std::_Function_base", ptr }
%"class.std::_Function_base" = type { %"union.std::_Any_data", ptr }
%"union.std::_Any_data" = type { %"union.std::_Nocopy_types" }
%"union.std::_Nocopy_types" = type { { i64, i64 } }
%"class.nanogui::Widget" = type <{ %"class.nanogui::Object.base", [4 x i8], ptr, %"class.nanogui::ref", %"class.nanogui::ref.0", %"struct.nanogui::Array", %"struct.nanogui::Array", %"struct.nanogui::Array", %"class.std::vector", i8, i8, i8, i8, [4 x i8], %"class.std::__cxx11::basic_string", i32, float, i32, [4 x i8] }>
%"class.nanogui::Texture" = type { %"class.nanogui::Object.base", i8, i8, i8, i8, i8, i8, i8, %"struct.nanogui::Array", i8, i32, i32 }
%"class.nanogui::Screen" = type { %"class.nanogui::Widget.base", ptr, ptr, [6 x ptr], i32, %"class.std::vector", %"struct.nanogui::Array", float, i32, i32, %"struct.nanogui::Array", i8, ptr, double, i8, %"class.nanogui::Color", %"class.std::__cxx11::basic_string", i8, i8, i8, i8, i8, i8, %"class.std::function.26" }
%"class.std::function.26" = type { %"class.std::_Function_base", ptr }

; Function Attrs: mustprogress nounwind uwtable
define linkonce_odr dso_local noundef float @_ZSt3powff(float noundef %0, float noundef %1) #2 comdat {
  %3 = alloca float, align 4
  %4 = alloca float, align 4
  store float %0, ptr %3, align 4
  store float %1, ptr %4, align 4
  %5 = load float, ptr %3, align 4
  %6 = load float, ptr %4, align 4
  %7 = call float @powf(float noundef %5, float noundef %6) #12
  ret float %7
}

; Function Attrs: mustprogress nounwind uwtable
define linkonce_odr hidden noundef nonnull align 4 dereferenceable(4) ptr @_ZN7nanogui5ArrayIfLm2EEixEm(ptr noundef nonnull align 4 dereferenceable(8) %0, i64 noundef %1) #2 comdat align 2 {
  %3 = alloca ptr, align 8
  %4 = alloca i64, align 8
  store ptr %0, ptr %3, align 8
  store i64 %1, ptr %4, align 8
  %5 = load ptr, ptr %3, align 8
  %6 = getelementptr inbounds %"struct.nanogui::Array.8", ptr %5, i32 0, i32 0
  %7 = load i64, ptr %4, align 8
  %8 = getelementptr inbounds [2 x float], ptr %6, i64 0, i64 %7
  ret ptr %8
}

; Function Attrs: mustprogress nounwind uwtable
define linkonce_odr hidden void @_ZN7nanogui5ArrayIfLm2EEC2Ev(ptr noundef nonnull align 4 dereferenceable(8) %0) unnamed_addr #2 comdat align 2 {
  %2 = alloca ptr, align 8
  store ptr %0, ptr %2, align 8
  ret void
}

; Function Attrs: mustprogress nounwind uwtable
define linkonce_odr hidden void @_ZN7nanogui5ArrayIiLm2EEC2IfEERKNS0_IT_Lm2EEE(ptr noundef nonnull align 4 dereferenceable(8) %0, ptr noundef nonnull align 4 dereferenceable(8) %1) unnamed_addr #2 comdat align 2 {
  %3 = alloca ptr, align 8
  %4 = alloca ptr, align 8
  %5 = alloca i64, align 8
  store ptr %0, ptr %3, align 8
  store ptr %1, ptr %4, align 8
  %6 = load ptr, ptr %3, align 8
  store i64 0, ptr %5, align 8
  br label %7

7:                                                ; preds = %20, %2
  %8 = load i64, ptr %5, align 8
  %9 = icmp ult i64 %8, 2
  br i1 %9, label %10, label %23

10:                                               ; preds = %7
  %11 = load ptr, ptr %4, align 8
  %12 = getelementptr inbounds %"struct.nanogui::Array.8", ptr %11, i32 0, i32 0
  %13 = load i64, ptr %5, align 8
  %14 = getelementptr inbounds [2 x float], ptr %12, i64 0, i64 %13
  %15 = load float, ptr %14, align 4
  %16 = fptosi float %15 to i32
  %17 = getelementptr inbounds %"struct.nanogui::Array", ptr %6, i32 0, i32 0
  %18 = load i64, ptr %5, align 8
  %19 = getelementptr inbounds [2 x i32], ptr %17, i64 0, i64 %18
  store i32 %16, ptr %19, align 4
  br label %20

20:                                               ; preds = %10
  %21 = load i64, ptr %5, align 8
  %22 = add i64 %21, 1
  store i64 %22, ptr %5, align 8
  br label %7, !llvm.loop !10

23:                                               ; preds = %7
  ret void
}

; Function Attrs: mustprogress uwtable
define linkonce_odr hidden <2 x float> @_ZN7nanoguimiERKNS_5ArrayIfLm2EEES3_(ptr noundef nonnull align 4 dereferenceable(8) %0, ptr noundef nonnull align 4 dereferenceable(8) %1) #8 comdat {
  %3 = alloca %"struct.nanogui::Array.8", align 4
  %4 = alloca ptr, align 8
  %5 = alloca ptr, align 8
  %6 = alloca i64, align 8
  store ptr %0, ptr %4, align 8
  store ptr %1, ptr %5, align 8
  call void @_ZN7nanogui5ArrayIfLm2EEC2Ev(ptr noundef nonnull align 4 dereferenceable(8) %3)
  store i64 0, ptr %6, align 8
  br label %7

7:                                                ; preds = %24, %2
  %8 = load i64, ptr %6, align 8
  %9 = icmp ult i64 %8, 2
  br i1 %9, label %10, label %27

10:                                               ; preds = %7
  %11 = load ptr, ptr %4, align 8
  %12 = getelementptr inbounds %"struct.nanogui::Array.8", ptr %11, i32 0, i32 0
  %13 = load i64, ptr %6, align 8
  %14 = getelementptr inbounds [2 x float], ptr %12, i64 0, i64 %13
  %15 = load float, ptr %14, align 4
  %16 = load ptr, ptr %5, align 8
  %17 = getelementptr inbounds %"struct.nanogui::Array.8", ptr %16, i32 0, i32 0
  %18 = load i64, ptr %6, align 8
  %19 = getelementptr inbounds [2 x float], ptr %17, i64 0, i64 %18
  %20 = load float, ptr %19, align 4
  %21 = fsub float %15, %20
  %22 = load i64, ptr %6, align 8
  %23 = call noundef nonnull align 4 dereferenceable(4) ptr @_ZN7nanogui5ArrayIfLm2EEixEm(ptr noundef nonnull align 4 dereferenceable(8) %3, i64 noundef %22)
  store float %21, ptr %23, align 4
  br label %24

24:                                               ; preds = %10
  %25 = load i64, ptr %6, align 8
  %26 = add i64 %25, 1
  store i64 %26, ptr %6, align 8
  br label %7, !llvm.loop !8

27:                                               ; preds = %7
  %28 = getelementptr inbounds %"struct.nanogui::Array.8", ptr %3, i32 0, i32 0
  %29 = load <2 x float>, ptr %28, align 4
  ret <2 x float> %29
}

; Function Attrs: mustprogress uwtable
define hidden noundef float @_ZNK7nanogui9ImageView5scaleEv(ptr noundef nonnull align 8 dereferenceable(272) %0) #0 align 2 {
  %2 = alloca ptr, align 8
  store ptr %0, ptr %2, align 8
  %3 = load ptr, ptr %2, align 8
  %4 = getelementptr inbounds %"class.nanogui::ImageView", ptr %3, i32 0, i32 3
  %5 = load float, ptr %4, align 8
  %6 = fdiv float %5, 5.000000e+00
  %7 = call noundef float @_ZSt3powff(float noundef 2.000000e+00, float noundef %6)
  ret float %7
}

; Function Attrs: mustprogress nounwind uwtable
define linkonce_odr hidden noundef nonnull align 4 dereferenceable(8) ptr @_ZNK7nanogui7Texture4sizeEv(ptr noundef nonnull align 8 dereferenceable(40) %0) #2 comdat align 2 {
  %2 = alloca ptr, align 8
  store ptr %0, ptr %2, align 8
  %3 = load ptr, ptr %2, align 8
  %4 = getelementptr inbounds %"class.nanogui::Texture", ptr %3, i32 0, i32 8
  ret ptr %4
}

; Function Attrs: mustprogress nounwind uwtable
define linkonce_odr hidden noundef ptr @_ZN7nanogui3refINS_7TextureEEptEv(ptr noundef nonnull align 8 dereferenceable(8) %0) #2 comdat align 2 {
  %2 = alloca ptr, align 8
  store ptr %0, ptr %2, align 8
  %3 = load ptr, ptr %2, align 8
  %4 = getelementptr inbounds %"class.nanogui::ref.7", ptr %3, i32 0, i32 0
  %5 = load ptr, ptr %4, align 8
  ret ptr %5
}

; Function Attrs: mustprogress uwtable
define linkonce_odr hidden <2 x float> @_ZN7nanoguimlERKNS_5ArrayIfLm2EEES3_(ptr noundef nonnull align 4 dereferenceable(8) %0, ptr noundef nonnull align 4 dereferenceable(8) %1) #8 comdat {
  %3 = alloca %"struct.nanogui::Array.8", align 4
  %4 = alloca ptr, align 8
  %5 = alloca ptr, align 8
  %6 = alloca i64, align 8
  store ptr %0, ptr %4, align 8
  store ptr %1, ptr %5, align 8
  call void @_ZN7nanogui5ArrayIfLm2EEC2Ev(ptr noundef nonnull align 4 dereferenceable(8) %3)
  store i64 0, ptr %6, align 8
  br label %7

7:                                                ; preds = %24, %2
  %8 = load i64, ptr %6, align 8
  %9 = icmp ult i64 %8, 2
  br i1 %9, label %10, label %27

10:                                               ; preds = %7
  %11 = load ptr, ptr %4, align 8
  %12 = getelementptr inbounds %"struct.nanogui::Array.8", ptr %11, i32 0, i32 0
  %13 = load i64, ptr %6, align 8
  %14 = getelementptr inbounds [2 x float], ptr %12, i64 0, i64 %13
  %15 = load float, ptr %14, align 4
  %16 = load ptr, ptr %5, align 8
  %17 = getelementptr inbounds %"struct.nanogui::Array.8", ptr %16, i32 0, i32 0
  %18 = load i64, ptr %6, align 8
  %19 = getelementptr inbounds [2 x float], ptr %17, i64 0, i64 %18
  %20 = load float, ptr %19, align 4
  %21 = fmul float %15, %20
  %22 = load i64, ptr %6, align 8
  %23 = call noundef nonnull align 4 dereferenceable(4) ptr @_ZN7nanogui5ArrayIfLm2EEixEm(ptr noundef nonnull align 4 dereferenceable(8) %3, i64 noundef %22)
  store float %21, ptr %23, align 4
  br label %24

24:                                               ; preds = %10
  %25 = load i64, ptr %6, align 8
  %26 = add i64 %25, 1
  store i64 %26, ptr %6, align 8
  br label %7, !llvm.loop !7

27:                                               ; preds = %7
  %28 = getelementptr inbounds %"struct.nanogui::Array.8", ptr %3, i32 0, i32 0
  %29 = load <2 x float>, ptr %28, align 4
  ret <2 x float> %29
}

; Function Attrs: mustprogress nounwind uwtable
define linkonce_odr hidden noundef float @_ZNK7nanogui6Screen11pixel_ratioEv(ptr noundef nonnull align 8 dereferenceable(384) %0) #2 comdat align 2 {
  %2 = alloca ptr, align 8
  store ptr %0, ptr %2, align 8
  %3 = load ptr, ptr %2, align 8
  %4 = getelementptr inbounds %"class.nanogui::Screen", ptr %3, i32 0, i32 7
  %5 = load float, ptr %4, align 8
  ret float %5
}

; Function Attrs: mustprogress nounwind uwtable
define linkonce_odr hidden void @_ZN7nanogui5ArrayIfLm2EEC2IiEERKNS0_IT_Lm2EEE(ptr noundef nonnull align 4 dereferenceable(8) %0, ptr noundef nonnull align 4 dereferenceable(8) %1) unnamed_addr #2 comdat align 2 {
  %3 = alloca ptr, align 8
  %4 = alloca ptr, align 8
  %5 = alloca i64, align 8
  store ptr %0, ptr %3, align 8
  store ptr %1, ptr %4, align 8
  %6 = load ptr, ptr %3, align 8
  store i64 0, ptr %5, align 8
  br label %7

7:                                                ; preds = %20, %2
  %8 = load i64, ptr %5, align 8
  %9 = icmp ult i64 %8, 2
  br i1 %9, label %10, label %23

10:                                               ; preds = %7
  %11 = load ptr, ptr %4, align 8
  %12 = getelementptr inbounds %"struct.nanogui::Array", ptr %11, i32 0, i32 0
  %13 = load i64, ptr %5, align 8
  %14 = getelementptr inbounds [2 x i32], ptr %12, i64 0, i64 %13
  %15 = load i32, ptr %14, align 4
  %16 = sitofp i32 %15 to float
  %17 = getelementptr inbounds %"struct.nanogui::Array.8", ptr %6, i32 0, i32 0
  %18 = load i64, ptr %5, align 8
  %19 = getelementptr inbounds [2 x float], ptr %17, i64 0, i64 %18
  store float %16, ptr %19, align 4
  br label %20

20:                                               ; preds = %10
  %21 = load i64, ptr %5, align 8
  %22 = add i64 %21, 1
  store i64 %22, ptr %5, align 8
  br label %7, !llvm.loop !9

23:                                               ; preds = %7
  ret void
}

; Function Attrs: mustprogress nounwind uwtable
define linkonce_odr hidden void @_ZN7nanogui5ArrayIfLm2EEC2Ef(ptr noundef nonnull align 4 dereferenceable(8) %0, float noundef %1) unnamed_addr #2 comdat align 2 {
  %3 = alloca ptr, align 8
  %4 = alloca float, align 4
  %5 = alloca i64, align 8
  store ptr %0, ptr %3, align 8
  store float %1, ptr %4, align 4
  %6 = load ptr, ptr %3, align 8
  store i64 0, ptr %5, align 8
  br label %7

7:                                                ; preds = %15, %2
  %8 = load i64, ptr %5, align 8
  %9 = icmp ult i64 %8, 2
  br i1 %9, label %10, label %18

10:                                               ; preds = %7
  %11 = load float, ptr %4, align 4
  %12 = getelementptr inbounds %"struct.nanogui::Array.8", ptr %6, i32 0, i32 0
  %13 = load i64, ptr %5, align 8
  %14 = getelementptr inbounds [2 x float], ptr %12, i64 0, i64 %13
  store float %11, ptr %14, align 4
  br label %15

15:                                               ; preds = %10
  %16 = load i64, ptr %5, align 8
  %17 = add i64 %16, 1
  store i64 %17, ptr %5, align 8
  br label %7, !llvm.loop !5

18:                                               ; preds = %7
  ret void
}

; Function Attrs: mustprogress uwtable
define hidden void @_ZN7nanogui9ImageView6centerEv(ptr noundef nonnull align 8 dereferenceable(272) %0) #8 align 2 {
  %2 = alloca ptr, align 8
  %3 = alloca %"struct.nanogui::Array.8", align 4
  %4 = alloca %"struct.nanogui::Array", align 4
  %5 = alloca %"struct.nanogui::Array.8", align 4
  %6 = alloca %"struct.nanogui::Array.8", align 4
  %7 = alloca %"struct.nanogui::Array.8", align 4
  %8 = alloca %"struct.nanogui::Array.8", align 4
  %9 = alloca %"struct.nanogui::Array.8", align 4
  %10 = alloca %"struct.nanogui::Array.8", align 4
  %11 = alloca %"struct.nanogui::Array.8", align 4
  %12 = alloca %"struct.nanogui::Array.8", align 4
  %13 = alloca %"struct.nanogui::Array.8", align 4
  store ptr %0, ptr %2, align 8
  %14 = load ptr, ptr %2, align 8
  %15 = getelementptr inbounds %"class.nanogui::ImageView", ptr %14, i32 0, i32 2
  %16 = call noundef ptr @_ZN7nanogui3refINS_7TextureEEcvPS1_Ev(ptr noundef nonnull align 8 dereferenceable(8) %15)
  %17 = icmp ne ptr %16, null
  br i1 %17, label %19, label %18

18:                                               ; preds = %1
  br label %36

19:                                               ; preds = %1
  call void @_ZN7nanogui5ArrayIfLm2EEC2Ef(ptr noundef nonnull align 4 dereferenceable(8) %6, float noundef 5.000000e-01)
  %20 = getelementptr inbounds %"class.nanogui::Widget", ptr %14, i32 0, i32 6
  call void @_ZN7nanogui5ArrayIfLm2EEC2IiEERKNS0_IT_Lm2EEE(ptr noundef nonnull align 4 dereferenceable(8) %9, ptr noundef nonnull align 4 dereferenceable(8) %20)
  %21 = call noundef ptr @_ZN7nanogui6Widget6screenEv(ptr noundef nonnull align 8 dereferenceable(140) %14)
  %22 = call noundef float @_ZNK7nanogui6Screen11pixel_ratioEv(ptr noundef nonnull align 8 dereferenceable(384) %21)
  call void @_ZN7nanogui5ArrayIfLm2EEC2Ef(ptr noundef nonnull align 4 dereferenceable(8) %10, float noundef %22)
  %23 = call <2 x float> @_ZN7nanoguimlERKNS_5ArrayIfLm2EEES3_(ptr noundef nonnull align 4 dereferenceable(8) %9, ptr noundef nonnull align 4 dereferenceable(8) %10)
  %24 = getelementptr inbounds %"struct.nanogui::Array.8", ptr %8, i32 0, i32 0
  store <2 x float> %23, ptr %24, align 4
  %25 = getelementptr inbounds %"class.nanogui::ImageView", ptr %14, i32 0, i32 2
  %26 = call noundef ptr @_ZN7nanogui3refINS_7TextureEEptEv(ptr noundef nonnull align 8 dereferenceable(8) %25)
  %27 = call noundef nonnull align 4 dereferenceable(8) ptr @_ZNK7nanogui7Texture4sizeEv(ptr noundef nonnull align 8 dereferenceable(40) %26)
  call void @_ZN7nanogui5ArrayIfLm2EEC2IiEERKNS0_IT_Lm2EEE(ptr noundef nonnull align 4 dereferenceable(8) %12, ptr noundef nonnull align 4 dereferenceable(8) %27)
  %28 = call noundef float @_ZNK7nanogui9ImageView5scaleEv(ptr noundef nonnull align 8 dereferenceable(272) %14)
  call void @_ZN7nanogui5ArrayIfLm2EEC2Ef(ptr noundef nonnull align 4 dereferenceable(8) %13, float noundef %28)
  %29 = call <2 x float> @_ZN7nanoguimlERKNS_5ArrayIfLm2EEES3_(ptr noundef nonnull align 4 dereferenceable(8) %12, ptr noundef nonnull align 4 dereferenceable(8) %13)
  %30 = getelementptr inbounds %"struct.nanogui::Array.8", ptr %11, i32 0, i32 0
  store <2 x float> %29, ptr %30, align 4
  %31 = call <2 x float> @_ZN7nanoguimiERKNS_5ArrayIfLm2EEES3_(ptr noundef nonnull align 4 dereferenceable(8) %8, ptr noundef nonnull align 4 dereferenceable(8) %11)
  %32 = getelementptr inbounds %"struct.nanogui::Array.8", ptr %7, i32 0, i32 0
  store <2 x float> %31, ptr %32, align 4
  %33 = call <2 x float> @_ZN7nanoguimlERKNS_5ArrayIfLm2EEES3_(ptr noundef nonnull align 4 dereferenceable(8) %6, ptr noundef nonnull align 4 dereferenceable(8) %7)
  %34 = getelementptr inbounds %"struct.nanogui::Array.8", ptr %5, i32 0, i32 0
  store <2 x float> %33, ptr %34, align 4
  call void @_ZN7nanogui5ArrayIiLm2EEC2IfEERKNS0_IT_Lm2EEE(ptr noundef nonnull align 4 dereferenceable(8) %4, ptr noundef nonnull align 4 dereferenceable(8) %5)
  call void @_ZN7nanogui5ArrayIfLm2EEC2IiEERKNS0_IT_Lm2EEE(ptr noundef nonnull align 4 dereferenceable(8) %3, ptr noundef nonnull align 4 dereferenceable(8) %4)
  %35 = getelementptr inbounds %"class.nanogui::ImageView", ptr %14, i32 0, i32 4
  call void @llvm.memcpy.p0.p0.i64(ptr align 4 %35, ptr align 4 %3, i64 8, i1 false)
  br label %36

36:                                               ; preds = %19, %18
  ret void
}

; Function Attrs: mustprogress uwtable
define hidden void @_ZN7nanogui9ImageView5resetEv(ptr noundef nonnull align 8 dereferenceable(272) %0) #0 align 2 {
  %2 = alloca ptr, align 8
  store ptr %0, ptr %2, align 8
  %3 = load ptr, ptr %2, align 8
  %4 = getelementptr inbounds %"class.nanogui::ImageView", ptr %3, i32 0, i32 3
  store float 0.000000e+00, ptr %4, align 8
  call void @_ZN7nanogui9ImageView6centerEv(ptr noundef nonnull align 8 dereferenceable(272) %3)
  ret void
}

; Function Attrs: mustprogress nounwind uwtable
define linkonce_odr hidden noundef ptr @_ZN7nanogui3refINS_7TextureEEcvPS1_Ev(ptr noundef nonnull align 8 dereferenceable(8) %0) #2 comdat align 2 {
  %2 = alloca ptr, align 8
  store ptr %0, ptr %2, align 8
  %3 = load ptr, ptr %2, align 8
  %4 = getelementptr inbounds %"class.nanogui::ref.7", ptr %3, i32 0, i32 0
  %5 = load ptr, ptr %4, align 8
  ret ptr %5
}

; Function Attrs: mustprogress uwtable
define hidden noundef zeroext i1 @_ZN7nanogui9ImageView14keyboard_eventEiiii(ptr noundef nonnull align 8 dereferenceable(272) %0, i32 noundef %1, i32 noundef %2, i32 noundef %3, i32 noundef %4) unnamed_addr #0 align 2 {
  %6 = alloca i1, align 1
  %7 = alloca ptr, align 8
  %8 = alloca i32, align 4
  %9 = alloca i32, align 4
  %10 = alloca i32, align 4
  %11 = alloca i32, align 4
  store ptr %0, ptr %7, align 8
  store i32 %1, ptr %8, align 4
  store i32 %2, ptr %9, align 4
  store i32 %3, ptr %10, align 4
  store i32 %4, ptr %11, align 4
  %12 = load ptr, ptr %7, align 8
  %13 = getelementptr inbounds %"class.nanogui::Widget", ptr %12, i32 0, i32 10
  %14 = load i8, ptr %13, align 1
  %15 = trunc i8 %14 to i1
  br i1 %15, label %16, label %20

16:                                               ; preds = %5
  %17 = getelementptr inbounds %"class.nanogui::ImageView", ptr %12, i32 0, i32 2
  %18 = call noundef ptr @_ZN7nanogui3refINS_7TextureEEcvPS1_Ev(ptr noundef nonnull align 8 dereferenceable(8) %17)
  %19 = icmp ne ptr %18, null
  br i1 %19, label %21, label %20

20:                                               ; preds = %16, %5
  store i1 false, ptr %6, align 1
  br label %30

21:                                               ; preds = %16
  %22 = load i32, ptr %10, align 4
  %23 = icmp eq i32 %22, 1
  br i1 %23, label %24, label %29

24:                                               ; preds = %21
  %25 = load i32, ptr %8, align 4
  %26 = icmp eq i32 %25, 82
  br i1 %26, label %27, label %28

27:                                               ; preds = %24
  call void @_ZN7nanogui9ImageView5resetEv(ptr noundef nonnull align 8 dereferenceable(272) %12)
  store i1 true, ptr %6, align 1
  br label %30

28:                                               ; preds = %24
  br label %29

29:                                               ; preds = %28, %21
  store i1 false, ptr %6, align 1
  br label %30

30:                                               ; preds = %29, %27, %20
  %31 = load i1, ptr %6, align 1
  ret i1 %31
}