; Function Attrs: mustprogress uwtable
define hidden noundef zeroext i1 @_ZN7nanogui9ImageView14keyboard_eventEiiii(ptr noundef nonnull align 8 dereferenceable(272) %0, i32 noundef %1, i32 %2, i32 noundef %3, i32 %4) unnamed_addr #0 align 2 {
  %6 = getelementptr inbounds i8, ptr %0, i64 89
  %7 = load i8, ptr %6, align 1
  %8 = and i8 %7, 1
  %.not = icmp eq i8 %8, 0
  br i1 %.not, label %39, label %9

9:                                                ; preds = %5
  %10 = getelementptr inbounds i8, ptr %0, i64 184
  %11 = load ptr, ptr %10, align 8
  %.not4 = icmp eq ptr %11, null
  br i1 %.not4, label %39, label %12

12:                                               ; preds = %9
  %13 = icmp eq i32 %3, 1
  %14 = icmp eq i32 %1, 82
  %or.cond = and i1 %14, %13
  br i1 %or.cond, label %_ZN7nanogui9ImageView5resetEv.exit, label %39

_ZN7nanogui9ImageView5resetEv.exit:               ; preds = %12
  %15 = getelementptr inbounds i8, ptr %0, i64 192
  store float 0.000000e+00, ptr %15, align 8
  %16 = getelementptr inbounds i8, ptr %0, i64 48
  %17 = getelementptr inbounds i8, ptr %0, i64 196
  %18 = load <2 x i32>, ptr %16, align 8
  %19 = sitofp <2 x i32> %18 to <2 x float>
  %20 = tail call noundef ptr @_ZN7nanogui6Widget6screenEv(ptr noundef nonnull align 8 dereferenceable(140) %0)
  %21 = getelementptr inbounds i8, ptr %20, i64 248
  %22 = load float, ptr %21, align 8
  %23 = insertelement <2 x float> poison, float %22, i64 0
  %24 = shufflevector <2 x float> %23, <2 x float> poison, <2 x i32> zeroinitializer
  %25 = fmul <2 x float> %24, %19
  %26 = load ptr, ptr %10, align 8
  %27 = getelementptr inbounds i8, ptr %26, i64 20
  %28 = load <2 x i32>, ptr %27, align 4
  %29 = sitofp <2 x i32> %28 to <2 x float>
  %30 = load float, ptr %15, align 8
  %31 = fdiv float %30, 5.000000e+00
  %exp2f.i.i.i = tail call noundef float @exp2f(float %31)
  %32 = insertelement <2 x float> poison, float %exp2f.i.i.i, i64 0
  %33 = shufflevector <2 x float> %32, <2 x float> poison, <2 x i32> zeroinitializer
  %34 = fmul <2 x float> %33, %29
  %35 = fsub <2 x float> %25, %34
  %36 = fmul <2 x float> %35, <float 5.000000e-01, float 5.000000e-01>
  %37 = fptosi <2 x float> %36 to <2 x i32>
  %38 = sitofp <2 x i32> %37 to <2 x float>
  store <2 x float> %38, ptr %17, align 4
  br label %39

39:                                               ; preds = %12, %5, %9, %_ZN7nanogui9ImageView5resetEv.exit
  %.0 = phi i1 [ true, %_ZN7nanogui9ImageView5resetEv.exit ], [ false, %9 ], [ false, %5 ], [ false, %12 ]
  ret i1 %.0
}